; ModuleID = '40/1569.c'
source_filename = "40/1569.c"
target datalayout = "e-m:e-p270:32:32-p271:32:32-p272:64:64-i64:64-f80:128-n8:16:32:64-S128"
target triple = "x86_64-pc-linux-gnu"

@.str = private unnamed_addr constant [20 x i8] c"%lf\0A%lf\0A%lf\0A%lf\0A%lf\00", align 1
@.str.1 = private unnamed_addr constant [14 x i8] c"Invalid input\00", align 1
@.str.2 = private unnamed_addr constant [6 x i8] c"%.4lf\00", align 1

; Function Attrs: noinline nounwind uwtable
define dso_local double @area(double %0, double %1, double %2, double %3, double %4) #0 {
  %6 = alloca double, align 8
  %7 = alloca double, align 8
  %8 = alloca double, align 8
  %9 = alloca double, align 8
  %10 = alloca double, align 8
  %11 = alloca double, align 8
  %12 = alloca double, align 8
  %13 = alloca double, align 8
  %14 = alloca double, align 8
  %15 = alloca double, align 8
  store double %0, double* %7, align 8
  store double %1, double* %8, align 8
  store double %2, double* %9, align 8
  store double %3, double* %10, align 8
  store double %4, double* %11, align 8
  store double 0x400921FB4D12D84A, double* %15, align 8
  %16 = load double, double* %7, align 8
  %17 = load double, double* %8, align 8
  %18 = fadd double %16, %17
  %19 = load double, double* %9, align 8
  %20 = fadd double %18, %19
  %21 = load double, double* %10, align 8
  %22 = fadd double %20, %21
  %23 = fdiv double %22, 2.000000e+00
  store double %23, double* %12, align 8
  %24 = load double, double* %12, align 8
  %25 = load double, double* %7, align 8
  %26 = fsub double %24, %25
  %27 = load double, double* %12, align 8
  %28 = load double, double* %8, align 8
  %29 = fsub double %27, %28
  %30 = fmul double %26, %29
  %31 = load double, double* %12, align 8
  %32 = load double, double* %9, align 8
  %33 = fsub double %31, %32
  %34 = fmul double %30, %33
  %35 = load double, double* %12, align 8
  %36 = load double, double* %10, align 8
  %37 = fsub double %35, %36
  %38 = fmul double %34, %37
  %39 = load double, double* %7, align 8
  %40 = load double, double* %8, align 8
  %41 = fmul double %39, %40
  %42 = load double, double* %9, align 8
  %43 = fmul double %41, %42
  %44 = load double, double* %10, align 8
  %45 = fmul double %43, %44
  %46 = load double, double* %11, align 8
  %47 = load double, double* %15, align 8
  %48 = fmul double %46, %47
  %49 = fdiv double %48, 3.600000e+02
  %50 = call double @cos(double %49) #3
  %51 = fmul double %45, %50
  %52 = load double, double* %11, align 8
  %53 = load double, double* %15, align 8
  %54 = fmul double %52, %53
  %55 = fdiv double %54, 3.600000e+02
  %56 = call double @cos(double %55) #3
  %57 = fmul double %51, %56
  %58 = fsub double %38, %57
  store double %58, double* %13, align 8
  %59 = load double, double* %13, align 8
  %60 = fcmp olt double %59, 0.000000e+00
  br i1 %60, label %61, label %62

61:                                               ; preds = %5
  store double -1.000000e+00, double* %6, align 8
  br label %67

62:                                               ; preds = %5
  %63 = load double, double* %13, align 8
  %64 = call double @sqrt(double %63) #3
  store double %64, double* %14, align 8
  br label %65

65:                                               ; preds = %62
  %66 = load double, double* %14, align 8
  store double %66, double* %6, align 8
  br label %67

67:                                               ; preds = %65, %61
  %68 = load double, double* %6, align 8
  ret double %68
}

; Function Attrs: nounwind
declare dso_local double @cos(double) #1

; Function Attrs: nounwind
declare dso_local double @sqrt(double) #1

; Function Attrs: noinline nounwind uwtable
define dso_local i32 @main() #0 {
  %1 = alloca i32, align 4
  %2 = alloca double, align 8
  %3 = alloca double, align 8
  %4 = alloca double, align 8
  %5 = alloca double, align 8
  %6 = alloca double, align 8
  %7 = alloca double, align 8
  store i32 0, i32* %1, align 4
  %8 = call i32 (i8*, ...) @__isoc99_scanf(i8* getelementptr inbounds ([20 x i8], [20 x i8]* @.str, i64 0, i64 0), double* %2, double* %3, double* %4, double* %5, double* %6)
  %9 = load double, double* %2, align 8
  %10 = load double, double* %3, align 8
  %11 = load double, double* %4, align 8
  %12 = load double, double* %5, align 8
  %13 = load double, double* %6, align 8
  %14 = call double @area(double %9, double %10, double %11, double %12, double %13)
  store double %14, double* %7, align 8
  %15 = load double, double* %7, align 8
  %16 = fcmp oeq double %15, -1.000000e+00
  br i1 %16, label %17, label %19

17:                                               ; preds = %0
  %18 = call i32 (i8*, ...) @printf(i8* getelementptr inbounds ([14 x i8], [14 x i8]* @.str.1, i64 0, i64 0))
  br label %22

19:                                               ; preds = %0
  %20 = load double, double* %7, align 8
  %21 = call i32 (i8*, ...) @printf(i8* getelementptr inbounds ([6 x i8], [6 x i8]* @.str.2, i64 0, i64 0), double %20)
  br label %22

22:                                               ; preds = %19, %17
  %23 = load i32, i32* %1, align 4
  ret i32 %23
}

declare dso_local i32 @__isoc99_scanf(i8*, ...) #2

declare dso_local i32 @printf(i8*, ...) #2


!llvm.module.flags = !{!0}
!llvm.ident = !{!1}

!0 = !{i32 1, !"wchar_size", i32 4}
!1 = !{!"clang version 10.0.0-4ubuntu1 "}
